; Function Attrs: mustprogress uwtable
define dso_local noundef zeroext i1 @_ZN3net14QuicConnection11OnPingFrameERKNS_13QuicPingFrameE(ptr nocapture noundef nonnull align 8 dereferenceable(3372) %this, ptr noundef nonnull align 1 dereferenceable(1) %frame) unnamed_addr #0 align 2 {
entry:
  %debug_visitor_ = getelementptr inbounds i8, ptr %this, i64 2400
  %0 = load ptr, ptr %debug_visitor_, align 8
  %cmp.not = icmp eq ptr %0, null
  br i1 %cmp.not, label %if.end, label %if.then

if.then:                                          ; preds = %entry
  %vtable = load ptr, ptr %0, align 8
  %vfn = getelementptr inbounds i8, ptr %vtable, i64 144
  %1 = load ptr, ptr %vfn, align 8
  tail call void %1(ptr noundef nonnull align 8 dereferenceable(8) %0, ptr noundef nonnull align 1 dereferenceable(1) %frame)
  br label %if.end

if.end:                                           ; preds = %if.then, %entry
  %should_last_packet_instigate_acks_ = getelementptr inbounds i8, ptr %this, i64 696
  store i8 1, ptr %should_last_packet_instigate_acks_, align 8
  ret i1 true
}